; Function Attrs: nounwind uwtable
define range(i32 -1, 1) i32 @H5VL_finish_lib_state() local_unnamed_addr #0 {
  %1 = tail call i32 @H5CX_pop(i1 noundef zeroext false) #10
  %2 = icmp slt i32 %1, 0
  br i1 %2, label %3, label %7

3:                                                ; preds = %0
  %4 = load i64, ptr @H5E_VOL_g, align 8
  %5 = load i64, ptr @H5E_CANTRESET_g, align 8
  %6 = tail call i32 (ptr, ptr, i32, i64, i64, ptr, ...) @H5E_printf_stack(ptr noundef nonnull @.str.2, ptr noundef nonnull @__func__.H5VL_finish_lib_state, i32 noundef 2121, i64 noundef %4, i64 noundef %5, ptr noundef nonnull @.str.81) #10
  br label %7

7:                                                ; preds = %0, %3
  %.0 = phi i32 [ -1, %3 ], [ 0, %0 ]
  ret i32 %.0
}